(dp1
S'barrels'
p2
(dp3
S'right_arm/shoulder_roll'
p4
F0.30945950746536255
sS'right_arm/shoulder_yaw'
p5
F1.3398228883743286
sS'right_arm/elbow_pitch'
p6
F1.6280339956283569
sS'left_arm/shoulder_roll'
p7
F0.42793580889701843
sS'left_arm/shoulder_yaw'
p8
F1.329155445098877
sS'left_arm/elbow_pitch'
p9
F1.5804897546768188
sS'left_arm/shoulder_pitch'
p10
F2.8208756446838379
sS'right_arm/shoulder_pitch'
p11
F2.7150156497955322
ssS'fork'
p12
(dp13
S'right_arm/shoulder_roll'
p14
F2.6759970188140869
sS'right_arm/shoulder_yaw'
p15
F1.3960742950439453
sS'right_arm/elbow_pitch'
p16
F1.3839218616485596
sS'left_arm/shoulder_roll'
p17
F2.9195308685302734
sS'left_arm/shoulder_yaw'
p18
F1.5019824504852295
sS'left_arm/elbow_pitch'
p19
F1.3739110231399536
sS'left_arm/shoulder_pitch'
p20
F2.7429330348968506
sS'right_arm/shoulder_pitch'
p21
F2.9464902877807617
ssS'hands_out'
p22
(dp23
S'right_arm/shoulder_roll'
p24
F1.7154958248138428
sS'right_arm/shoulder_yaw'
p25
F1.5331904888153076
sS'right_arm/elbow_pitch'
p26
F2.9556360244750977
sS'left_arm/shoulder_roll'
p27
F1.7070095539093018
sS'left_arm/shoulder_yaw'
p28
F1.5763764381408691
sS'left_arm/elbow_pitch'
p29
F2.9043965339660645
sS'left_arm/shoulder_pitch'
p30
F3.1078643798828125
sS'right_arm/shoulder_pitch'
p31
F3.1029095649719238
ssS'hands_down'
p32
(dp33
S'left_leg/hip_yaw'
p34
F1.7032190561294556
sS'right_leg/hip_yaw'
p35
F1.5055062770843506
sS'right_leg/hip_roll'
p36
F0
sS'right_arm/shoulder_roll'
p37
F0.37684130668640137
sS'right_arm/shoulder_yaw'
p38
F0.204630047082901
sS'right_arm/elbow_pitch'
p39
F2.793649435043335
sS'left_arm/shoulder_roll'
p40
F0.28042042255401611
sS'left_leg/hip_roll'
p41
F0
sS'left_leg/hip_pitch'
p42
F3.0090205669403076
sS'left_arm/shoulder_yaw'
p43
F0.27923151850700378
sS'left_arm/elbow_pitch'
p44
F2.767385721206665
sS'right_leg/knee_pitch'
p45
F2.9908204078674316
sS'left_arm/shoulder_pitch'
p46
F1.8495272397994995
sS'left_leg/knee_pitch'
p47
F3.0185408592224121
sS'right_leg/hip_pitch'
p48
F3.0762882232666016
sS'right_arm/shoulder_pitch'
p49
F1.7710998058319092
ssS'bent_fork'
p50
(dp51
S'right_arm/shoulder_roll'
p52
F1.4990769624710083
sS'right_arm/shoulder_yaw'
p53
F1.6988486051559448
sS'right_arm/elbow_pitch'
p54
F1.3733432292938232
sS'left_arm/shoulder_roll'
p55
F1.3892480134963989
sS'left_arm/shoulder_yaw'
p56
F1.7687555551528931
sS'left_arm/elbow_pitch'
p57
F1.3026478290557861
sS'left_arm/shoulder_pitch'
p58
F2.86460280418396
sS'right_arm/shoulder_pitch'
p59
F2.8542275428771973
ssS'cross'
p60
(dp61
S'right_arm/shoulder_roll'
p62
F2.4478051662445068
sS'right_arm/shoulder_yaw'
p63
F1.0590482950210571
sS'right_arm/elbow_pitch'
p64
F1.3485302925109863
sS'left_arm/shoulder_roll'
p65
F2.3748888969421387
sS'left_arm/shoulder_yaw'
p66
F1.0317128896713257
sS'left_arm/elbow_pitch'
p67
F1.2044035196304321
sS'left_arm/shoulder_pitch'
p68
F1.3611946105957031
sS'right_arm/shoulder_pitch'
p69
F1.3836128711700439
ssS'stop_right'
p70
(dp71
S'right_arm/shoulder_roll'
p72
F2.0704984664916992
sS'right_arm/shoulder_yaw'
p73
F1.5254253149032593
sS'right_arm/elbow_pitch'
p74
F2.5965192317962646
sS'left_arm/shoulder_roll'
p75
F0.33493414521217346
sS'left_arm/shoulder_yaw'
p76
F0.386688232421875
sS'left_arm/elbow_pitch'
p77
F2.77471923828125
sS'left_arm/shoulder_pitch'
p78
F1.9290480613708496
sS'right_arm/shoulder_pitch'
p79
F1.8732523918151855
ssS'hands_up'
p80
(dp81
S'right_arm/shoulder_roll'
p82
F2.7461063861846924
sS'right_arm/shoulder_yaw'
p83
F2.607940673828125
sS'right_arm/elbow_pitch'
p84
F3.0000734329223633
sS'left_arm/shoulder_roll'
p85
F2.7905418872833252
sS'left_arm/shoulder_yaw'
p86
F2.590101957321167
sS'left_arm/elbow_pitch'
p87
F2.9321885108947754
sS'left_arm/shoulder_pitch'
p88
F1.9634108543395996
sS'right_arm/shoulder_pitch'
p89
F1.8996129035949707
ssS'X'
(dp90
S'left_leg/hip_yaw'
p91
F1.8654073476791382
sS'right_leg/hip_yaw'
p92
F1.7684168815612793
sS'right_leg/hip_roll'
p93
F0
sS'right_arm/shoulder_roll'
p94
F2.3259971141815186
sS'right_arm/shoulder_yaw'
p95
F2.1870770454406738
sS'right_arm/elbow_pitch'
p96
F2.9048426151275635
sS'left_arm/shoulder_roll'
p97
F2.2466850280761719
sS'left_arm/elbow_pitch'
p98
F2.9770710468292236
sS'left_leg/hip_pitch'
p99
F2.8167705535888672
sS'left_arm/shoulder_yaw'
p100
F2.1060125827789307
sS'left_leg/hip_roll'
p101
F0
sS'right_leg/knee_pitch'
p102
F2.9722287654876709
sS'left_arm/shoulder_pitch'
p103
F2.5713410377502441
sS'left_leg/knee_pitch'
p104
F3.0238568782806396
sS'right_leg/hip_pitch'
p105
F2.9163546562194824
sS'right_arm/shoulder_pitch'
p106
F2.4926223754882812
ssS'Y'
(dp107
S'left_leg/hip_yaw'
p108
F1.4346784353256226
sS'right_leg/hip_yaw'
p109
F1.3955789804458618
sS'right_leg/hip_roll'
p110
F0
sS'right_arm/shoulder_roll'
p111
F2.3104763031005859
sS'right_arm/shoulder_yaw'
p112
F2.1866488456726074
sS'right_arm/elbow_pitch'
p113
F2.9688277244567871
sS'left_arm/shoulder_roll'
p114
F2.2297825813293457
sS'left_leg/hip_roll'
p115
F0
sS'left_leg/hip_pitch'
p116
F2.8825585842132568
sS'left_arm/shoulder_yaw'
p117
F2.1678776741027832
sS'left_arm/elbow_pitch'
p118
F2.9289200305938721
sS'right_leg/knee_pitch'
p119
F2.922154426574707
sS'left_arm/shoulder_pitch'
p120
F2.5294780731201172
sS'left_leg/knee_pitch'
p121
F2.8193550109863281
sS'right_leg/hip_pitch'
p122
F2.9198026657104492
sS'right_arm/shoulder_pitch'
p123
F2.5046594142913818
ssS'stop_left'
p124
(dp125
S'right_arm/shoulder_roll'
p126
F0.32432430982589722
sS'right_arm/shoulder_yaw'
p127
F0.22668683528900146
sS'right_arm/elbow_pitch'
p128
F2.7068057060241699
sS'left_arm/shoulder_roll'
p129
F1.9550127983093262
sS'left_arm/shoulder_yaw'
p130
F1.409088134765625
sS'left_arm/elbow_pitch'
p131
F2.590022087097168
sS'left_arm/shoulder_pitch'
p132
F2.0077335834503174
sS'right_arm/shoulder_pitch'
p133
F1.7858555316925049
ssS'surrender'
p134
(dp135
S'right_arm/shoulder_roll'
p136
F1.8983054161071777
sS'right_arm/shoulder_yaw'
p137
F2.1750326156616211
sS'right_arm/elbow_pitch'
p138
F0.95652282238006592
sS'left_arm/shoulder_roll'
p139
F1.9716533422470093
sS'left_arm/shoulder_yaw'
p140
F2.1042909622192383
sS'left_arm/elbow_pitch'
p141
F0.93896549940109253
sS'left_arm/shoulder_pitch'
p142
F2.6080708503723145
sS'right_arm/shoulder_pitch'
p143
F2.4630255699157715
ssS'hips'
p144
(dp145
S'right_arm/shoulder_roll'
p146
F0.37592622637748718
sS'right_arm/shoulder_yaw'
p147
F0.86419790983200073
sS'right_arm/elbow_pitch'
p148
F1.9019266366958618
sS'left_arm/shoulder_roll'
p149
F0.46743443608283997
sS'left_arm/shoulder_yaw'
p150
F0.81555593013763428
sS'left_arm/elbow_pitch'
p151
F1.8611470460891724
sS'left_arm/shoulder_pitch'
p152
F2.3786334991455078
sS'right_arm/shoulder_pitch'
p153
F2.3815269470214844
ss.